target datalayout = "e-m:e-p270:32:32-p271:32:32-p272:64:64-i64:64-i128:128-f80:128-n8:16:32:64-S128"
target triple = "x86_64-pc-linux-gnu"

%struct.H5G_bt_it_idx_common_t = type { i64, i64, ptr }
%struct.H5G_bt_it_gnbi_t = type { %struct.H5G_bt_it_idx_common_t, ptr, ptr }
%struct.H5G_entry_t = type { i32, %union.H5G_cache_t, i64, i64 }
%union.H5G_cache_t = type { %struct.anon }
%struct.anon = type { i64, i64 }

@.str = private unnamed_addr constant [101 x i8] c"generated/home/dtcxzyw/WorkSpace/Projects/compilers/llvm-opt-benchmark/bench/hdf5/hdf5/src/H5Gstab.c\00", align 1
@H5E_SYM_g = external global i64, align 8
@H5E_CANTGET_g = external global i64, align 8
@__func__.H5G__stab_get_name_by_idx_cb = private unnamed_addr constant [29 x i8] c"H5G__stab_get_name_by_idx_cb\00", align 1
@.str.29 = private unnamed_addr constant [37 x i8] c"unable to get symbol table link name\00", align 1
@.str.30 = private unnamed_addr constant [43 x i8] c"unable to duplicate symbol table link name\00", align 1

; Function Attrs: nounwind uwtable
define internal i32 @H5G__stab_get_name_by_idx_cb(ptr noundef %0, ptr noundef %1) #0 {
  %3 = alloca ptr, align 8
  %4 = alloca ptr, align 8
  %5 = alloca ptr, align 8
  %6 = alloca i64, align 8
  %7 = alloca ptr, align 8
  %8 = alloca i64, align 8
  %9 = alloca i32, align 4
  %10 = alloca i8, align 1
  store ptr %0, ptr %3, align 8
  store ptr %1, ptr %4, align 8
  %11 = load ptr, ptr %4, align 8
  store ptr %11, ptr %5, align 8
  store i32 0, ptr %9, align 4
  store i8 0, ptr %10, align 1
  %12 = load ptr, ptr %5, align 8
  %13 = getelementptr inbounds %struct.H5G_bt_it_gnbi_t, ptr %12, i32 0, i32 1
  %14 = load ptr, ptr %13, align 8
  %15 = call i64 @H5HL_heap_get_size(ptr noundef %14)
  store i64 %15, ptr %8, align 8
  %16 = load ptr, ptr %3, align 8
  %17 = getelementptr inbounds %struct.H5G_entry_t, ptr %16, i32 0, i32 2
  %18 = load i64, ptr %17, align 8
  store i64 %18, ptr %6, align 8
  %19 = load ptr, ptr %5, align 8
  %20 = getelementptr inbounds %struct.H5G_bt_it_gnbi_t, ptr %19, i32 0, i32 1
  %21 = load ptr, ptr %20, align 8
  %22 = load i64, ptr %6, align 8
  %23 = call ptr @H5HL_offset_into(ptr noundef %21, i64 noundef %22)
  store ptr %23, ptr %7, align 8
  %24 = icmp eq ptr %23, null
  br i1 %24, label %25, label %40

25:                                               ; preds = %2
  br label %26

26:                                               ; preds = %25
  br label %27

27:                                               ; preds = %26
  br label %28

28:                                               ; preds = %27
  %29 = load i64, ptr @H5E_SYM_g, align 8
  %30 = load i64, ptr @H5E_CANTGET_g, align 8
  %31 = call i32 (ptr, ptr, i32, i64, i64, ptr, ...) @H5E_printf_stack(ptr noundef @.str, ptr noundef @__func__.H5G__stab_get_name_by_idx_cb, i32 noundef 657, i64 noundef %29, i64 noundef %30, ptr noundef @.str.29)
  br label %32

32:                                               ; preds = %28
  store i8 1, ptr %10, align 1
  %33 = load i8, ptr %10, align 1
  %34 = trunc i8 %33 to i1
  %35 = zext i1 %34 to i8
  store i8 %35, ptr %10, align 1
  br label %36

36:                                               ; preds = %32
  br label %37

37:                                               ; preds = %36
  store i32 -1, ptr %9, align 4
  br label %65

38:                                               ; No predecessors!
  br label %39

39:                                               ; preds = %38
  br label %40

40:                                               ; preds = %39, %2
  %41 = load ptr, ptr %7, align 8
  %42 = load i64, ptr %8, align 8
  %43 = load i64, ptr %6, align 8
  %44 = sub i64 %42, %43
  %45 = call noalias ptr @H5MM_strndup(ptr noundef %41, i64 noundef %44)
  %46 = load ptr, ptr %5, align 8
  %47 = getelementptr inbounds %struct.H5G_bt_it_gnbi_t, ptr %46, i32 0, i32 2
  store ptr %45, ptr %47, align 8
  %48 = icmp eq ptr null, %45
  br i1 %48, label %49, label %64

49:                                               ; preds = %40
  br label %50

50:                                               ; preds = %49
  br label %51

51:                                               ; preds = %50
  br label %52

52:                                               ; preds = %51
  %53 = load i64, ptr @H5E_SYM_g, align 8
  %54 = load i64, ptr @H5E_CANTGET_g, align 8
  %55 = call i32 (ptr, ptr, i32, i64, i64, ptr, ...) @H5E_printf_stack(ptr noundef @.str, ptr noundef @__func__.H5G__stab_get_name_by_idx_cb, i32 noundef 660, i64 noundef %53, i64 noundef %54, ptr noundef @.str.30)
  br label %56

56:                                               ; preds = %52
  store i8 1, ptr %10, align 1
  %57 = load i8, ptr %10, align 1
  %58 = trunc i8 %57 to i1
  %59 = zext i1 %58 to i8
  store i8 %59, ptr %10, align 1
  br label %60

60:                                               ; preds = %56
  br label %61

61:                                               ; preds = %60
  store i32 -1, ptr %9, align 4
  br label %65

62:                                               ; No predecessors!
  br label %63

63:                                               ; preds = %62
  br label %64

64:                                               ; preds = %63, %40
  br label %65

65:                                               ; preds = %64, %61, %37
  %66 = load i32, ptr %9, align 4
  ret i32 %66
}