; Function Attrs: nounwind uwtable
define internal range(i32 -1, 1) i32 @H5G__stab_get_name_by_idx_cb(ptr nocapture noundef readonly %0, ptr nocapture noundef %1) #0 {
  %3 = getelementptr inbounds i8, ptr %1, i64 24
  %4 = load ptr, ptr %3, align 8
  %5 = tail call i64 @H5HL_heap_get_size(ptr noundef %4) #6
  %6 = getelementptr inbounds i8, ptr %0, i64 24
  %7 = load i64, ptr %6, align 8
  %8 = load ptr, ptr %3, align 8
  %9 = tail call ptr @H5HL_offset_into(ptr noundef %8, i64 noundef %7) #6
  %10 = icmp eq ptr %9, null
  br i1 %10, label %11, label %15

11:                                               ; preds = %2
  %12 = load i64, ptr @H5E_SYM_g, align 8
  %13 = load i64, ptr @H5E_CANTGET_g, align 8
  %14 = tail call i32 (ptr, ptr, i32, i64, i64, ptr, ...) @H5E_printf_stack(ptr noundef nonnull @.str, ptr noundef nonnull @__func__.H5G__stab_get_name_by_idx_cb, i32 noundef 657, i64 noundef %12, i64 noundef %13, ptr noundef nonnull @.str.29) #6
  br label %24

15:                                               ; preds = %2
  %16 = sub i64 %5, %7
  %17 = tail call noalias ptr @H5MM_strndup(ptr noundef nonnull %9, i64 noundef %16) #6
  %18 = getelementptr inbounds i8, ptr %1, i64 32
  store ptr %17, ptr %18, align 8
  %19 = icmp eq ptr %17, null
  br i1 %19, label %20, label %24

20:                                               ; preds = %15
  %21 = load i64, ptr @H5E_SYM_g, align 8
  %22 = load i64, ptr @H5E_CANTGET_g, align 8
  %23 = tail call i32 (ptr, ptr, i32, i64, i64, ptr, ...) @H5E_printf_stack(ptr noundef nonnull @.str, ptr noundef nonnull @__func__.H5G__stab_get_name_by_idx_cb, i32 noundef 660, i64 noundef %21, i64 noundef %22, ptr noundef nonnull @.str.30) #6
  br label %24

24:                                               ; preds = %15, %20, %11
  %.0 = phi i32 [ -1, %11 ], [ -1, %20 ], [ 0, %15 ]
  ret i32 %.0
}